c__builtin__
set
p0
((lp1
(I30
I176
I117
I88
tp2
a(I158
I85
I776
I400
tp3
a(I564
I438
I68
I47
tp4
a(I437
I414
I114
I71
tp5
a(I851
I244
I83
I241
tp6
a(I526
I56
I75
I92
tp7
a(I171
I107
I559
I227
tp8
a(I264
I456
I112
I29
tp9
a(I93
I342
I565
I143
tp10
a(I537
I401
I121
I84
tp11
a(I120
I350
I142
I135
tp12
a(I118
I411
I47
I56
tp13
a(I0
I0
I934
I485
tp14
a(I29
I457
I49
I28
tp15
a(I171
I107
I559
I241
tp16
a(I120
I351
I82
I79
tp17
a(I120
I351
I82
I100
tp18
a(I202
I177
I522
I157
tp19
a(I122
I374
I100
I111
tp20
a(I155
I75
I779
I410
tp21
a(I571
I401
I87
I84
tp22
a(I265
I456
I111
I29
tp23
a(I569
I269
I124
I137
tp24
a(I93
I342
I469
I143
tp25
a(I331
I87
I40
I86
tp26
a(I171
I107
I564
I241
tp27
a(I265
I456
I108
I29
tp28
a(I526
I56
I63
I92
tp29
a(I120
I342
I142
I143
tp30
a(I225
I183
I498
I84
tp31
a(I751
I283
I73
I59
tp32
a(I202
I177
I521
I157
tp33
a(I165
I366
I387
I119
tp34
a(I235
I179
I500
I85
tp35
a(I869
I84
I65
I96
tp36
a(I782
I127
I72
I41
tp37
a(I737
I8
I73
I87
tp38
a(I782
I139
I71
I29
tp39
a(I17
I399
I55
I69
tp40
a(I284
I251
I271
I86
tp41
a(I171
I170
I553
I164
tp42
a(I0
I0
I217
I34
tp43
a(I278
I270
I397
I143
tp44
a(I757
I283
I67
I59
tp45
a(I61
I311
I62
I59
tp46
a(I772
I187
I103
I49
tp47
a(I218
I107
I55
I80
tp48
a(I0
I398
I73
I87
tp49
a(I61
I311
I597
I174
tp50
a(I719
I378
I69
I55
tp51
a(I120
I342
I442
I143
tp52
a(I418
I434
I33
I51
tp53
a(I225
I183
I498
I151
tp54
a(I564
I407
I93
I78
tp55
a(I851
I6
I59
I74
tp56
a(I61
I311
I62
I62
tp57
a(I782
I127
I76
I41
tp58
a(I120
I351
I142
I134
tp59
a(I30
I176
I117
I100
tp60
a(I418
I434
I54
I51
tp61
a(I199
I177
I525
I157
tp62
a(I202
I179
I521
I155
tp63
a(I704
I357
I84
I76
tp64
a(I224
I423
I328
I62
tp65
a(I546
I56
I43
I85
tp66
a(I3
I399
I69
I69
tp67
a(I851
I6
I71
I75
tp68
a(I427
I76
I68
I79
tp69
a(I0
I430
I46
I55
tp70
a(I26
I127
I125
I82
tp71
a(I443
I76
I52
I79
tp72
a(I158
I75
I776
I410
tp73
a(I142
I368
I120
I117
tp74
a(I165
I368
I387
I117
tp75
a(I774
I187
I101
I49
tp76
a(I171
I107
I553
I227
tp77
a(I120
I342
I432
I143
tp78
a(I0
I0
I208
I34
tp79
a(I754
I8
I56
I87
tp80
a(I63
I127
I88
I78
tp81
a(I285
I274
I286
I60
tp82
a(I118
I342
I444
I143
tp83
a(I0
I398
I64
I87
tp84
a(I171
I177
I553
I157
tp85
a(I158
I148
I776
I337
tp86
atp87
Rp88
.